; Function Attrs: mustprogress nounwind uwtable
define internal fastcc void @_ZN7testing8internal10linked_ptrISt5tupleIJN2cv5Size_IiEEN11opencv_test12_GLOBAL__N_17CvtModeEEEED2Ev(ptr noundef nonnull readonly align 8 dereferenceable(16) %0) unnamed_addr #12 align 2 personality ptr @__gxx_personality_v0 {
  %2 = getelementptr inbounds nuw i8, ptr %0, i64 8
  invoke void @_ZN7testing8internal9MutexBase4LockEv(ptr noundef nonnull align 8 dereferenceable(56) @_ZN7testing8internal18g_linked_ptr_mutexE)
          to label %.noexc unwind label %15

.noexc:                                           ; preds = %1
  %3 = load ptr, ptr %2, align 8, !tbaa !29
  %4 = icmp eq ptr %3, %2
  br i1 %4, label %7, label %.preheader.i.i

.preheader.i.i:                                   ; preds = %.noexc, %.preheader.i.i
  %.0.i.i = phi ptr [ %5, %.preheader.i.i ], [ %3, %.noexc ]
  %5 = load ptr, ptr %.0.i.i, align 8, !tbaa !29
  %.not.i.i = icmp eq ptr %5, %2
  br i1 %.not.i.i, label %6, label %.preheader.i.i, !llvm.loop !123

6:                                                ; preds = %.preheader.i.i
  store ptr %3, ptr %.0.i.i, align 8, !tbaa !29
  br label %7

7:                                                ; preds = %6, %.noexc
  invoke void @_ZN7testing8internal9MutexBase6UnlockEv(ptr noundef nonnull align 8 dereferenceable(56) @_ZN7testing8internal18g_linked_ptr_mutexE)
          to label %_ZN7testing8internal19linked_ptr_internal6departEv.exit.i unwind label %8

8:                                                ; preds = %7
  %9 = landingpad { ptr, i32 }
          catch ptr null
  %10 = extractvalue { ptr, i32 } %9, 0
  tail call void @__clang_call_terminate(ptr %10) #32
  unreachable

_ZN7testing8internal19linked_ptr_internal6departEv.exit.i: ; preds = %7
  br i1 %4, label %11, label %_ZN7testing8internal10linked_ptrISt5tupleIJN2cv5Size_IiEEN11opencv_test12_GLOBAL__N_17CvtModeEEEE6departEv.exit

11:                                               ; preds = %_ZN7testing8internal19linked_ptr_internal6departEv.exit.i
  %12 = load ptr, ptr %0, align 8, !tbaa !608
  %13 = icmp eq ptr %12, null
  br i1 %13, label %_ZN7testing8internal10linked_ptrISt5tupleIJN2cv5Size_IiEEN11opencv_test12_GLOBAL__N_17CvtModeEEEE6departEv.exit, label %14

14:                                               ; preds = %11
  tail call void @_ZdlPv(ptr noundef nonnull %12) #33
  br label %_ZN7testing8internal10linked_ptrISt5tupleIJN2cv5Size_IiEEN11opencv_test12_GLOBAL__N_17CvtModeEEEE6departEv.exit

_ZN7testing8internal10linked_ptrISt5tupleIJN2cv5Size_IiEEN11opencv_test12_GLOBAL__N_17CvtModeEEEE6departEv.exit: ; preds = %14, %11, %_ZN7testing8internal19linked_ptr_internal6departEv.exit.i
  ret void

15:                                               ; preds = %1
  %16 = landingpad { ptr, i32 }
          catch ptr null
  %17 = extractvalue { ptr, i32 } %16, 0
  tail call void @__clang_call_terminate(ptr %17) #32
  unreachable
}